(lp1
F0.50486026731470235
aF0.47934386391251521
aF0.49149453219927097
aF0.50303766707168895
aF0.49453219927095993
aF0.5
aF0.49574726609963549
aF0.5078979343863913
aF0.50243013365735112
aF0.5139732685297691
aF0.50546780072904007
aF0.51093560145808015
aF0.50729040097205347
aF0.51275820170109354
aF0.50972053462940459
aF0.50607533414337791
aF0.50425273390036451
aF0.50486026731470235
aF0.50668286755771563
a.