(lp1
F0.48177399756986633
aF0.48481166464155528
aF0.48784933171324424
aF0.51154313487241798
aF0.51154313487241798
aF0.51154313487241798
aF0.51154313487241798
aF0.51154313487241798
aF0.51154313487241798
aF0.51154313487241798
aF0.51154313487241798
aF0.51154313487241798
aF0.51154313487241798
aF0.51154313487241798
aF0.51154313487241798
aF0.51154313487241798
aF0.51154313487241798
aF0.51154313487241798
aF0.51154313487241798
a.